target datalayout = "e-m:e-p270:32:32-p271:32:32-p272:64:64-i64:64-i128:128-f80:128-n8:16:32:64-S128"
target triple = "x86_64-unknown-linux-gnu"

%"class.std::__shared_count" = type { ptr }
%"struct.facebook::velox::IndexRange" = type { i32, i32 }
%"class.folly::Range" = type { ptr, ptr }
%"class.std::shared_ptr.0" = type { %"class.std::__shared_ptr.1" }
%"class.std::__shared_ptr.1" = type { ptr, %"class.std::__shared_count" }
%"class.boost::intrusive_ptr" = type { ptr }
%"class.std::optional" = type { %"struct.std::_Optional_base" }
%"struct.std::_Optional_base" = type { %"struct.std::_Optional_payload" }
%"struct.std::_Optional_payload" = type { %"struct.std::_Optional_payload_base.base", [3 x i8] }
%"struct.std::_Optional_payload_base.base" = type <{ %"union.std::_Optional_payload_base<int>::_Storage", i8 }>
%"union.std::_Optional_payload_base<int>::_Storage" = type { i32 }
%"class.facebook::velox::serializer::presto::(anonymous namespace)::PrestoVectorSerializer" = type { %"class.facebook::velox::VectorSerializer", ptr, %"class.std::unique_ptr.25", i32, %"class.std::vector.33" }
%"class.facebook::velox::VectorSerializer" = type { ptr }
%"class.std::unique_ptr.25" = type { %"struct.std::__uniq_ptr_data.26" }
%"struct.std::__uniq_ptr_data.26" = type { %"class.std::__uniq_ptr_impl.27" }
%"class.std::__uniq_ptr_impl.27" = type { %"class.std::tuple.28" }
%"class.std::tuple.28" = type { %"struct.std::_Tuple_impl.29" }
%"struct.std::_Tuple_impl.29" = type { %"struct.std::_Head_base.32" }
%"struct.std::_Head_base.32" = type { ptr }
%"class.std::vector.33" = type { %"struct.std::_Vector_base.34" }
%"struct.std::_Vector_base.34" = type { %"struct.std::_Vector_base<std::unique_ptr<facebook::velox::serializer::presto::(anonymous namespace)::VectorStream>, std::allocator<std::unique_ptr<facebook::velox::serializer::presto::(anonymous namespace)::VectorStream>>>::_Vector_impl" }
%"struct.std::_Vector_base<std::unique_ptr<facebook::velox::serializer::presto::(anonymous namespace)::VectorStream>, std::allocator<std::unique_ptr<facebook::velox::serializer::presto::(anonymous namespace)::VectorStream>>>::_Vector_impl" = type { %"struct.std::_Vector_base<std::unique_ptr<facebook::velox::serializer::presto::(anonymous namespace)::VectorStream>, std::allocator<std::unique_ptr<facebook::velox::serializer::presto::(anonymous namespace)::VectorStream>>>::_Vector_impl_data" }
%"struct.std::_Vector_base<std::unique_ptr<facebook::velox::serializer::presto::(anonymous namespace)::VectorStream>, std::allocator<std::unique_ptr<facebook::velox::serializer::presto::(anonymous namespace)::VectorStream>>>::_Vector_impl_data" = type { ptr, ptr, ptr }
%"class.std::__shared_ptr.23" = type { ptr, %"class.std::__shared_count" }
%"class.std::shared_ptr" = type { %"class.std::__shared_ptr" }
%"class.std::__shared_ptr" = type { ptr, %"class.std::__shared_count" }
%"class.facebook::velox::RowVector" = type <{ %"class.facebook::velox::BaseVector.base", [5 x i8], i64, %"class.std::vector.17", i8, i8, [6 x i8] }>
%"class.facebook::velox::BaseVector.base" = type <{ ptr, %"class.std::shared_ptr.0", i8, [3 x i8], i32, %"class.boost::intrusive_ptr", ptr, ptr, i32, %"class.std::optional", %"class.std::optional", %"class.std::optional", %"class.std::optional", i32, i8, i8, i8 }>
%"class.std::vector.17" = type { %"struct.std::_Vector_base.18" }
%"struct.std::_Vector_base.18" = type { %"struct.std::_Vector_base<std::shared_ptr<facebook::velox::BaseVector>, std::allocator<std::shared_ptr<facebook::velox::BaseVector>>>::_Vector_impl" }
%"struct.std::_Vector_base<std::shared_ptr<facebook::velox::BaseVector>, std::allocator<std::shared_ptr<facebook::velox::BaseVector>>>::_Vector_impl" = type { %"struct.std::_Vector_base<std::shared_ptr<facebook::velox::BaseVector>, std::allocator<std::shared_ptr<facebook::velox::BaseVector>>>::_Vector_impl_data" }
%"struct.std::_Vector_base<std::shared_ptr<facebook::velox::BaseVector>, std::allocator<std::shared_ptr<facebook::velox::BaseVector>>>::_Vector_impl_data" = type { ptr, ptr, ptr }
%"class.std::unique_ptr.316" = type { %"struct.std::__uniq_ptr_data.317" }
%"struct.std::__uniq_ptr_data.317" = type { %"class.std::__uniq_ptr_impl.318" }
%"class.std::__uniq_ptr_impl.318" = type { %"class.std::tuple.319" }
%"class.std::tuple.319" = type { %"struct.std::_Tuple_impl.320" }
%"struct.std::_Tuple_impl.320" = type { %"struct.std::_Head_base.323" }
%"struct.std::_Head_base.323" = type { ptr }

; Function Attrs: mustprogress nounwind uwtable
define internal noundef nonnull align 8 dereferenceable(8) ptr @_ZNSt10_Head_baseILm0EPN8facebook5velox10serializer6presto12_GLOBAL__N_112VectorStreamELb0EE7_M_headERKS7_(ptr noundef nonnull align 8 dereferenceable(8) %__b) #1 align 2 {
entry:
  %__b.addr = alloca ptr, align 8
  store ptr %__b, ptr %__b.addr, align 8
  %0 = load ptr, ptr %__b.addr, align 8
  %_M_head_impl = getelementptr inbounds %"struct.std::_Head_base.323", ptr %0, i32 0, i32 0
  ret ptr %_M_head_impl
}

; Function Attrs: mustprogress nounwind uwtable
define internal noundef nonnull align 8 dereferenceable(8) ptr @_ZNSt11_Tuple_implILm0EJPN8facebook5velox10serializer6presto12_GLOBAL__N_112VectorStreamESt14default_deleteIS5_EEE7_M_headERKS9_(ptr noundef nonnull align 8 dereferenceable(8) %__t) #1 align 2 {
entry:
  %__t.addr = alloca ptr, align 8
  store ptr %__t, ptr %__t.addr, align 8
  %0 = load ptr, ptr %__t.addr, align 8
  %call = call noundef nonnull align 8 dereferenceable(8) ptr @_ZNSt10_Head_baseILm0EPN8facebook5velox10serializer6presto12_GLOBAL__N_112VectorStreamELb0EE7_M_headERKS7_(ptr noundef nonnull align 8 dereferenceable(8) %0) #20
  ret ptr %call
}

; Function Attrs: mustprogress nounwind uwtable
define internal noundef nonnull align 8 dereferenceable(8) ptr @_ZSt12__get_helperILm0EPN8facebook5velox10serializer6presto12_GLOBAL__N_112VectorStreamEJSt14default_deleteIS5_EEERKT0_RKSt11_Tuple_implIXT_EJS9_DpT1_EE(ptr noundef nonnull align 8 dereferenceable(8) %__t) #1 {
entry:
  %__t.addr = alloca ptr, align 8
  store ptr %__t, ptr %__t.addr, align 8
  %0 = load ptr, ptr %__t.addr, align 8
  %call = call noundef nonnull align 8 dereferenceable(8) ptr @_ZNSt11_Tuple_implILm0EJPN8facebook5velox10serializer6presto12_GLOBAL__N_112VectorStreamESt14default_deleteIS5_EEE7_M_headERKS9_(ptr noundef nonnull align 8 dereferenceable(8) %0) #20
  ret ptr %call
}

; Function Attrs: mustprogress nounwind uwtable
define internal noundef nonnull align 8 dereferenceable(8) ptr @_ZSt3getILm0EJPN8facebook5velox10serializer6presto12_GLOBAL__N_112VectorStreamESt14default_deleteIS5_EEERKNSt13tuple_elementIXT_ESt5tupleIJDpT0_EEE4typeERKSD_(ptr noundef nonnull align 8 dereferenceable(8) %__t) #1 {
entry:
  %__t.addr = alloca ptr, align 8
  store ptr %__t, ptr %__t.addr, align 8
  %0 = load ptr, ptr %__t.addr, align 8
  %call = call noundef nonnull align 8 dereferenceable(8) ptr @_ZSt12__get_helperILm0EPN8facebook5velox10serializer6presto12_GLOBAL__N_112VectorStreamEJSt14default_deleteIS5_EEERKT0_RKSt11_Tuple_implIXT_EJS9_DpT1_EE(ptr noundef nonnull align 8 dereferenceable(8) %0) #20
  ret ptr %call
}

; Function Attrs: mustprogress nounwind uwtable
define linkonce_odr noundef ptr @_ZNKSt12__shared_ptrIN8facebook5velox9RowVectorELN9__gnu_cxx12_Lock_policyE2EE3getEv(ptr noundef nonnull align 8 dereferenceable(16) %this) #1 comdat align 2 {
entry:
  %this.addr = alloca ptr, align 8
  store ptr %this, ptr %this.addr, align 8
  %this1 = load ptr, ptr %this.addr, align 8
  %_M_ptr = getelementptr inbounds %"class.std::__shared_ptr.23", ptr %this1, i32 0, i32 0
  %0 = load ptr, ptr %_M_ptr, align 8
  ret ptr %0
}

; Function Attrs: mustprogress nounwind uwtable
define internal noundef ptr @_ZNKSt15__uniq_ptr_implIN8facebook5velox10serializer6presto12_GLOBAL__N_112VectorStreamESt14default_deleteIS5_EE6_M_ptrEv(ptr noundef nonnull align 8 dereferenceable(8) %this) #1 align 2 {
entry:
  %this.addr = alloca ptr, align 8
  store ptr %this, ptr %this.addr, align 8
  %this1 = load ptr, ptr %this.addr, align 8
  %_M_t = getelementptr inbounds %"class.std::__uniq_ptr_impl.318", ptr %this1, i32 0, i32 0
  %call = call noundef nonnull align 8 dereferenceable(8) ptr @_ZSt3getILm0EJPN8facebook5velox10serializer6presto12_GLOBAL__N_112VectorStreamESt14default_deleteIS5_EEERKNSt13tuple_elementIXT_ESt5tupleIJDpT0_EEE4typeERKSD_(ptr noundef nonnull align 8 dereferenceable(8) %_M_t) #20
  %0 = load ptr, ptr %call, align 8
  ret ptr %0
}

; Function Attrs: mustprogress nounwind uwtable
define linkonce_odr noundef nonnull align 8 dereferenceable(16) ptr @_ZNSt6vectorISt10shared_ptrIN8facebook5velox10BaseVectorEESaIS4_EEixEm(ptr noundef nonnull align 8 dereferenceable(24) %this, i64 noundef %__n) #1 comdat align 2 {
entry:
  %this.addr = alloca ptr, align 8
  %__n.addr = alloca i64, align 8
  store ptr %this, ptr %this.addr, align 8
  store i64 %__n, ptr %__n.addr, align 8
  %this1 = load ptr, ptr %this.addr, align 8
  %_M_impl = getelementptr inbounds %"struct.std::_Vector_base.18", ptr %this1, i32 0, i32 0
  %_M_start = getelementptr inbounds %"struct.std::_Vector_base<std::shared_ptr<facebook::velox::BaseVector>, std::allocator<std::shared_ptr<facebook::velox::BaseVector>>>::_Vector_impl_data", ptr %_M_impl, i32 0, i32 0
  %0 = load ptr, ptr %_M_start, align 8
  %1 = load i64, ptr %__n.addr, align 8
  %add.ptr = getelementptr inbounds %"class.std::shared_ptr", ptr %0, i64 %1
  ret ptr %add.ptr
}

; Function Attrs: mustprogress nounwind uwtable
define linkonce_odr noundef ptr @_ZNKSt19__shared_ptr_accessIN8facebook5velox9RowVectorELN9__gnu_cxx12_Lock_policyE2ELb0ELb0EE6_M_getEv(ptr noundef nonnull align 1 dereferenceable(1) %this) #1 comdat align 2 {
entry:
  %this.addr = alloca ptr, align 8
  store ptr %this, ptr %this.addr, align 8
  %this1 = load ptr, ptr %this.addr, align 8
  %call = call noundef ptr @_ZNKSt12__shared_ptrIN8facebook5velox9RowVectorELN9__gnu_cxx12_Lock_policyE2EE3getEv(ptr noundef nonnull align 8 dereferenceable(16) %this1) #20
  ret ptr %call
}

; Function Attrs: mustprogress nounwind uwtable
define linkonce_odr noundef ptr @_ZNK5folly5RangeIPKN8facebook5velox10IndexRangeEE3endEv(ptr noundef nonnull align 8 dereferenceable(16) %this) #1 comdat align 2 {
entry:
  %this.addr = alloca ptr, align 8
  store ptr %this, ptr %this.addr, align 8
  %this1 = load ptr, ptr %this.addr, align 8
  %e_ = getelementptr inbounds %"class.folly::Range", ptr %this1, i32 0, i32 1
  %0 = load ptr, ptr %e_, align 8
  ret ptr %0
}

; Function Attrs: mustprogress nounwind uwtable
define linkonce_odr noundef ptr @_ZNK5folly5RangeIPKN8facebook5velox10IndexRangeEE5beginEv(ptr noundef nonnull align 8 dereferenceable(16) %this) #1 comdat align 2 {
entry:
  %this.addr = alloca ptr, align 8
  store ptr %this, ptr %this.addr, align 8
  %this1 = load ptr, ptr %this.addr, align 8
  %b_ = getelementptr inbounds %"class.folly::Range", ptr %this1, i32 0, i32 0
  %0 = load ptr, ptr %b_, align 8
  ret ptr %0
}

; Function Attrs: mustprogress nounwind uwtable
define internal noundef ptr @_ZNKSt10unique_ptrIN8facebook5velox10serializer6presto12_GLOBAL__N_112VectorStreamESt14default_deleteIS5_EE3getEv(ptr noundef nonnull align 8 dereferenceable(8) %this) #1 align 2 {
entry:
  %this.addr = alloca ptr, align 8
  store ptr %this, ptr %this.addr, align 8
  %this1 = load ptr, ptr %this.addr, align 8
  %_M_t = getelementptr inbounds %"class.std::unique_ptr.316", ptr %this1, i32 0, i32 0
  %call = call noundef ptr @_ZNKSt15__uniq_ptr_implIN8facebook5velox10serializer6presto12_GLOBAL__N_112VectorStreamESt14default_deleteIS5_EE6_M_ptrEv(ptr noundef nonnull align 8 dereferenceable(8) %_M_t) #20
  ret ptr %call
}

; Function Attrs: mustprogress nounwind uwtable
define internal noundef nonnull align 8 dereferenceable(8) ptr @_ZNSt6vectorISt10unique_ptrIN8facebook5velox10serializer6presto12_GLOBAL__N_112VectorStreamESt14default_deleteIS6_EESaIS9_EEixEm(ptr noundef nonnull align 8 dereferenceable(24) %this, i64 noundef %__n) #1 align 2 {
entry:
  %this.addr = alloca ptr, align 8
  %__n.addr = alloca i64, align 8
  store ptr %this, ptr %this.addr, align 8
  store i64 %__n, ptr %__n.addr, align 8
  %this1 = load ptr, ptr %this.addr, align 8
  %_M_impl = getelementptr inbounds %"struct.std::_Vector_base.34", ptr %this1, i32 0, i32 0
  %_M_start = getelementptr inbounds %"struct.std::_Vector_base<std::unique_ptr<facebook::velox::serializer::presto::(anonymous namespace)::VectorStream>, std::allocator<std::unique_ptr<facebook::velox::serializer::presto::(anonymous namespace)::VectorStream>>>::_Vector_impl_data", ptr %_M_impl, i32 0, i32 0
  %0 = load ptr, ptr %_M_start, align 8
  %1 = load i64, ptr %__n.addr, align 8
  %add.ptr = getelementptr inbounds %"class.std::unique_ptr.316", ptr %0, i64 %1
  ret ptr %add.ptr
}

; Function Attrs: mustprogress nounwind uwtable
define linkonce_odr noundef ptr @_ZNKSt12__shared_ptrIN8facebook5velox10BaseVectorELN9__gnu_cxx12_Lock_policyE2EE3getEv(ptr noundef nonnull align 8 dereferenceable(16) %this) #1 comdat align 2 {
entry:
  %this.addr = alloca ptr, align 8
  store ptr %this, ptr %this.addr, align 8
  %this1 = load ptr, ptr %this.addr, align 8
  %_M_ptr = getelementptr inbounds %"class.std::__shared_ptr", ptr %this1, i32 0, i32 0
  %0 = load ptr, ptr %_M_ptr, align 8
  ret ptr %0
}

; Function Attrs: mustprogress nounwind uwtable
define linkonce_odr noundef nonnull align 8 dereferenceable(16) ptr @_ZN8facebook5velox9RowVector7childAtEj(ptr noundef nonnull align 8 dereferenceable(138) %this, i32 noundef %index) #1 comdat align 2 {
entry:
  %this.addr = alloca ptr, align 8
  %index.addr = alloca i32, align 4
  store ptr %this, ptr %this.addr, align 8
  store i32 %index, ptr %index.addr, align 4
  %this1 = load ptr, ptr %this.addr, align 8
  %0 = load i32, ptr %index.addr, align 4
  %conv = zext i32 %0 to i64
  %childrenSize_ = getelementptr inbounds %"class.facebook::velox::RowVector", ptr %this1, i32 0, i32 2
  %1 = load i64, ptr %childrenSize_, align 8
  %cmp = icmp ult i64 %conv, %1
  %lnot = xor i1 %cmp, true
  br i1 %lnot, label %if.then, label %if.end

if.then:                                          ; preds = %entry
  call void @llvm.trap()
  br label %if.end

if.end:                                           ; preds = %if.then, %entry
  %children_ = getelementptr inbounds %"class.facebook::velox::RowVector", ptr %this1, i32 0, i32 3
  %2 = load i32, ptr %index.addr, align 4
  %conv3 = zext i32 %2 to i64
  %call = call noundef nonnull align 8 dereferenceable(16) ptr @_ZNSt6vectorISt10shared_ptrIN8facebook5velox10BaseVectorEESaIS4_EEixEm(ptr noundef nonnull align 8 dereferenceable(24) %children_, i64 noundef %conv3) #20
  ret ptr %call
}

; Function Attrs: mustprogress nounwind uwtable
define linkonce_odr noundef i64 @_ZNK8facebook5velox9RowVector12childrenSizeEv(ptr noundef nonnull align 8 dereferenceable(138) %this) #1 comdat align 2 {
entry:
  %this.addr = alloca ptr, align 8
  store ptr %this, ptr %this.addr, align 8
  %this1 = load ptr, ptr %this.addr, align 8
  %childrenSize_ = getelementptr inbounds %"class.facebook::velox::RowVector", ptr %this1, i32 0, i32 2
  %0 = load i64, ptr %childrenSize_, align 8
  ret i64 %0
}

; Function Attrs: mustprogress nounwind uwtable
define linkonce_odr noundef ptr @_ZNKSt19__shared_ptr_accessIN8facebook5velox9RowVectorELN9__gnu_cxx12_Lock_policyE2ELb0ELb0EEptEv(ptr noundef nonnull align 1 dereferenceable(1) %this) #1 comdat align 2 {
entry:
  %this.addr = alloca ptr, align 8
  store ptr %this, ptr %this.addr, align 8
  %this1 = load ptr, ptr %this.addr, align 8
  %call = call noundef ptr @_ZNKSt19__shared_ptr_accessIN8facebook5velox9RowVectorELN9__gnu_cxx12_Lock_policyE2ELb0ELb0EE6_M_getEv(ptr noundef nonnull align 1 dereferenceable(1) %this1) #20
  ret ptr %call
}

; Function Attrs: mustprogress uwtable
define internal noundef i32 @_ZN8facebook5velox10serializer6presto12_GLOBAL__N_115rangesTotalSizeERKN5folly5RangeIPKNS0_10IndexRangeEEE(ptr noundef nonnull align 8 dereferenceable(16) %ranges) #0 {
entry:
  %ranges.addr = alloca ptr, align 8
  %total = alloca i32, align 4
  %__range3 = alloca ptr, align 8
  %__begin3 = alloca ptr, align 8
  %__end3 = alloca ptr, align 8
  %range = alloca ptr, align 8
  store ptr %ranges, ptr %ranges.addr, align 8
  store i32 0, ptr %total, align 4
  %0 = load ptr, ptr %ranges.addr, align 8
  store ptr %0, ptr %__range3, align 8
  %1 = load ptr, ptr %__range3, align 8
  %call = call noundef ptr @_ZNK5folly5RangeIPKN8facebook5velox10IndexRangeEE5beginEv(ptr noundef nonnull align 8 dereferenceable(16) %1)
  store ptr %call, ptr %__begin3, align 8
  %2 = load ptr, ptr %__range3, align 8
  %call1 = call noundef ptr @_ZNK5folly5RangeIPKN8facebook5velox10IndexRangeEE3endEv(ptr noundef nonnull align 8 dereferenceable(16) %2)
  store ptr %call1, ptr %__end3, align 8
  br label %for.cond

for.cond:                                         ; preds = %for.inc, %entry
  %3 = load ptr, ptr %__begin3, align 8
  %4 = load ptr, ptr %__end3, align 8
  %cmp = icmp ne ptr %3, %4
  br i1 %cmp, label %for.body, label %for.end

for.body:                                         ; preds = %for.cond
  %5 = load ptr, ptr %__begin3, align 8
  store ptr %5, ptr %range, align 8
  %6 = load ptr, ptr %range, align 8
  %size = getelementptr inbounds %"struct.facebook::velox::IndexRange", ptr %6, i32 0, i32 1
  %7 = load i32, ptr %size, align 4
  %8 = load i32, ptr %total, align 4
  %add = add nsw i32 %8, %7
  store i32 %add, ptr %total, align 4
  br label %for.inc

for.inc:                                          ; preds = %for.body
  %9 = load ptr, ptr %__begin3, align 8
  %incdec.ptr = getelementptr inbounds %"struct.facebook::velox::IndexRange", ptr %9, i32 1
  store ptr %incdec.ptr, ptr %__begin3, align 8
  br label %for.cond

for.end:                                          ; preds = %for.cond
  %10 = load i32, ptr %total, align 4
  ret i32 %10
}

; Function Attrs: mustprogress uwtable
define internal void @_ZN8facebook5velox10serializer6presto12_GLOBAL__N_122PrestoVectorSerializer6appendERKSt10shared_ptrINS0_9RowVectorEERKN5folly5RangeIPKNS0_10IndexRangeEEERNS0_7ScratchE(ptr noundef nonnull align 8 dereferenceable(56) %this, ptr noundef nonnull align 8 dereferenceable(16) %vector, ptr noundef nonnull align 8 dereferenceable(16) %ranges, ptr noundef nonnull align 8 dereferenceable(24) %scratch) unnamed_addr #0 align 2 {
entry:
  %this.addr = alloca ptr, align 8
  %vector.addr = alloca ptr, align 8
  %ranges.addr = alloca ptr, align 8
  %scratch.addr = alloca ptr, align 8
  %newRows = alloca i32, align 4
  %i = alloca i32, align 4
  store ptr %this, ptr %this.addr, align 8
  store ptr %vector, ptr %vector.addr, align 8
  store ptr %ranges, ptr %ranges.addr, align 8
  store ptr %scratch, ptr %scratch.addr, align 8
  %this1 = load ptr, ptr %this.addr, align 8
  %0 = load ptr, ptr %ranges.addr, align 8
  %call = call noundef i32 @_ZN8facebook5velox10serializer6presto12_GLOBAL__N_115rangesTotalSizeERKN5folly5RangeIPKNS0_10IndexRangeEEE(ptr noundef nonnull align 8 dereferenceable(16) %0)
  store i32 %call, ptr %newRows, align 4
  %1 = load i32, ptr %newRows, align 4
  %cmp = icmp sgt i32 %1, 0
  br i1 %cmp, label %if.then, label %if.end

if.then:                                          ; preds = %entry
  %2 = load i32, ptr %newRows, align 4
  %numRows_ = getelementptr inbounds %"class.facebook::velox::serializer::presto::(anonymous namespace)::PrestoVectorSerializer", ptr %this1, i32 0, i32 3
  %3 = load i32, ptr %numRows_, align 8
  %add = add nsw i32 %3, %2
  store i32 %add, ptr %numRows_, align 8
  store i32 0, ptr %i, align 4
  br label %for.cond

for.cond:                                         ; preds = %for.inc, %if.then
  %4 = load i32, ptr %i, align 4
  %conv = sext i32 %4 to i64
  %5 = load ptr, ptr %vector.addr, align 8
  %call2 = call noundef ptr @_ZNKSt19__shared_ptr_accessIN8facebook5velox9RowVectorELN9__gnu_cxx12_Lock_policyE2ELb0ELb0EEptEv(ptr noundef nonnull align 1 dereferenceable(1) %5) #20
  %call3 = call noundef i64 @_ZNK8facebook5velox9RowVector12childrenSizeEv(ptr noundef nonnull align 8 dereferenceable(138) %call2)
  %cmp4 = icmp ult i64 %conv, %call3
  br i1 %cmp4, label %for.body, label %for.end

for.body:                                         ; preds = %for.cond
  %6 = load ptr, ptr %vector.addr, align 8
  %call5 = call noundef ptr @_ZNKSt19__shared_ptr_accessIN8facebook5velox9RowVectorELN9__gnu_cxx12_Lock_policyE2ELb0ELb0EEptEv(ptr noundef nonnull align 1 dereferenceable(1) %6) #20
  %7 = load i32, ptr %i, align 4
  %call6 = call noundef nonnull align 8 dereferenceable(16) ptr @_ZN8facebook5velox9RowVector7childAtEj(ptr noundef nonnull align 8 dereferenceable(138) %call5, i32 noundef %7)
  %call7 = call noundef ptr @_ZNKSt12__shared_ptrIN8facebook5velox10BaseVectorELN9__gnu_cxx12_Lock_policyE2EE3getEv(ptr noundef nonnull align 8 dereferenceable(16) %call6) #20
  %8 = load ptr, ptr %ranges.addr, align 8
  %streams_ = getelementptr inbounds %"class.facebook::velox::serializer::presto::(anonymous namespace)::PrestoVectorSerializer", ptr %this1, i32 0, i32 4
  %9 = load i32, ptr %i, align 4
  %conv8 = sext i32 %9 to i64
  %call9 = call noundef nonnull align 8 dereferenceable(8) ptr @_ZNSt6vectorISt10unique_ptrIN8facebook5velox10serializer6presto12_GLOBAL__N_112VectorStreamESt14default_deleteIS6_EESaIS9_EEixEm(ptr noundef nonnull align 8 dereferenceable(24) %streams_, i64 noundef %conv8) #20
  %call10 = call noundef ptr @_ZNKSt10unique_ptrIN8facebook5velox10serializer6presto12_GLOBAL__N_112VectorStreamESt14default_deleteIS5_EE3getEv(ptr noundef nonnull align 8 dereferenceable(8) %call9) #20
  call void @_ZN8facebook5velox10serializer6presto12_GLOBAL__N_115serializeColumnEPKNS0_10BaseVectorERKN5folly5RangeIPKNS0_10IndexRangeEEEPNS3_12VectorStreamE(ptr noundef %call7, ptr noundef nonnull align 8 dereferenceable(16) %8, ptr noundef %call10)
  br label %for.inc

for.inc:                                          ; preds = %for.body
  %10 = load i32, ptr %i, align 4
  %inc = add nsw i32 %10, 1
  store i32 %inc, ptr %i, align 4
  br label %for.cond, !llvm.loop !350

for.end:                                          ; preds = %for.cond
  br label %if.end

if.end:                                           ; preds = %for.end, %entry
  ret void
}