; Function Attrs: mustprogress uwtable
define internal void @_ZN8facebook5velox10serializer6presto12_GLOBAL__N_122PrestoVectorSerializer6appendERKSt10shared_ptrINS0_9RowVectorEERKN5folly5RangeIPKNS0_10IndexRangeEEERNS0_7ScratchE(ptr nocapture noundef nonnull align 8 dereferenceable(56) %this, ptr nocapture noundef nonnull readonly align 8 dereferenceable(16) %vector, ptr noundef nonnull align 8 dereferenceable(16) %ranges, ptr nocapture nonnull readnone align 8 %scratch) unnamed_addr #0 align 2 {
entry:
  %ranges.val = load ptr, ptr %ranges, align 8
  %0 = getelementptr inbounds i8, ptr %ranges, i64 8
  %ranges.val7 = load ptr, ptr %0, align 8
  %cmp.not1.i = icmp eq ptr %ranges.val, %ranges.val7
  br i1 %cmp.not1.i, label %if.end, label %for.body.i

for.body.i:                                       ; preds = %entry, %for.body.i
  %total.03.i = phi i32 [ %add.i, %for.body.i ], [ 0, %entry ]
  %__begin3.02.i = phi ptr [ %incdec.ptr.i, %for.body.i ], [ %ranges.val, %entry ]
  %size.i = getelementptr inbounds i8, ptr %__begin3.02.i, i64 4
  %1 = load i32, ptr %size.i, align 4
  %add.i = add nsw i32 %1, %total.03.i
  %incdec.ptr.i = getelementptr inbounds i8, ptr %__begin3.02.i, i64 8
  %cmp.not.i = icmp eq ptr %incdec.ptr.i, %ranges.val7
  br i1 %cmp.not.i, label %_ZN8facebook5velox10serializer6presto12_GLOBAL__N_115rangesTotalSizeERKN5folly5RangeIPKNS0_10IndexRangeEEE.exit, label %for.body.i

_ZN8facebook5velox10serializer6presto12_GLOBAL__N_115rangesTotalSizeERKN5folly5RangeIPKNS0_10IndexRangeEEE.exit: ; preds = %for.body.i
  %cmp = icmp sgt i32 %add.i, 0
  br i1 %cmp, label %if.then, label %if.end

if.then:                                          ; preds = %_ZN8facebook5velox10serializer6presto12_GLOBAL__N_115rangesTotalSizeERKN5folly5RangeIPKNS0_10IndexRangeEEE.exit
  %numRows_ = getelementptr inbounds i8, ptr %this, i64 24
  %2 = load i32, ptr %numRows_, align 8
  %add = add nsw i32 %2, %add.i
  store i32 %add, ptr %numRows_, align 8
  %3 = load ptr, ptr %vector, align 8
  %childrenSize_.i12 = getelementptr inbounds i8, ptr %3, i64 104
  %4 = load i64, ptr %childrenSize_.i12, align 8
  %cmp413.not = icmp eq i64 %4, 0
  br i1 %cmp413.not, label %if.end, label %_ZN8facebook5velox9RowVector7childAtEj.exit.lr.ph

_ZN8facebook5velox9RowVector7childAtEj.exit.lr.ph: ; preds = %if.then
  %streams_ = getelementptr inbounds i8, ptr %this, i64 32
  br label %_ZN8facebook5velox9RowVector7childAtEj.exit

_ZN8facebook5velox9RowVector7childAtEj.exit:      ; preds = %_ZN8facebook5velox9RowVector7childAtEj.exit.lr.ph, %_ZN8facebook5velox9RowVector7childAtEj.exit
  %indvars.iv = phi i64 [ 0, %_ZN8facebook5velox9RowVector7childAtEj.exit.lr.ph ], [ %indvars.iv.next, %_ZN8facebook5velox9RowVector7childAtEj.exit ]
  %5 = phi ptr [ %3, %_ZN8facebook5velox9RowVector7childAtEj.exit.lr.ph ], [ %8, %_ZN8facebook5velox9RowVector7childAtEj.exit ]
  %children_.i = getelementptr inbounds i8, ptr %5, i64 112
  %6 = load ptr, ptr %children_.i, align 8
  %add.ptr.i.i = getelementptr inbounds %"class.std::shared_ptr", ptr %6, i64 %indvars.iv
  %7 = load ptr, ptr %add.ptr.i.i, align 8
  %streams_.val = load ptr, ptr %streams_, align 8
  %add.ptr.i = getelementptr inbounds %"class.std::unique_ptr.316", ptr %streams_.val, i64 %indvars.iv
  %call9.val = load ptr, ptr %add.ptr.i, align 8
  tail call fastcc void @_ZN8facebook5velox10serializer6presto12_GLOBAL__N_115serializeColumnEPKNS0_10BaseVectorERKN5folly5RangeIPKNS0_10IndexRangeEEEPNS3_12VectorStreamE(ptr noundef %7, ptr noundef nonnull align 8 dereferenceable(16) %ranges, ptr noundef %call9.val)
  %indvars.iv.next = add nuw nsw i64 %indvars.iv, 1
  %8 = load ptr, ptr %vector, align 8
  %childrenSize_.i = getelementptr inbounds i8, ptr %8, i64 104
  %9 = load i64, ptr %childrenSize_.i, align 8
  %cmp4 = icmp ugt i64 %9, %indvars.iv.next
  br i1 %cmp4, label %_ZN8facebook5velox9RowVector7childAtEj.exit, label %if.end, !llvm.loop !556

if.end:                                           ; preds = %_ZN8facebook5velox9RowVector7childAtEj.exit, %if.then, %entry, %_ZN8facebook5velox10serializer6presto12_GLOBAL__N_115rangesTotalSizeERKN5folly5RangeIPKNS0_10IndexRangeEEE.exit
  ret void
}